; Function Attrs: nounwind uwtable
define ptr @l___private_Lake_Util_Name_0__Lean_Name_cmp_match__1_splitter___rarg___boxed(ptr noundef %0, ptr noundef %1, ptr noundef %2) #0 {
  %4 = ptrtoint ptr %0 to i64
  %5 = and i64 %4, 1
  %.not = icmp eq i64 %5, 0
  br i1 %.not, label %6, label %lean_dec.exit6

6:                                                ; preds = %3
  %7 = load i32, ptr %0, align 4, !tbaa !4
  %8 = icmp sgt i32 %7, 1
  br i1 %8, label %9, label %11, !prof !9

9:                                                ; preds = %6
  %10 = add nsw i32 %7, -1
  store i32 %10, ptr %0, align 4, !tbaa !4
  br label %lean_dec.exit6

11:                                               ; preds = %6
  %.not.i = icmp eq i32 %7, 0
  br i1 %.not.i, label %lean_dec.exit6, label %12

12:                                               ; preds = %11
  tail call void @lean_dec_ref_cold(ptr noundef nonnull %0) #5
  br label %lean_dec.exit6

lean_dec.exit6:                                   ; preds = %12, %11, %9, %3
  %13 = and i64 %4, 510
  %14 = icmp eq i64 %13, 2
  br i1 %14, label %15, label %l___private_Lake_Util_Name_0__Lean_Name_cmp_match__1_splitter___rarg.exit

15:                                               ; preds = %lean_dec.exit6
  %16 = ptrtoint ptr %2 to i64
  %17 = and i64 %16, 1
  %.not.i9 = icmp eq i64 %17, 0
  br i1 %.not.i9, label %18, label %lean_dec.exit10.i

18:                                               ; preds = %15
  %19 = load i32, ptr %2, align 4, !tbaa !4
  %20 = icmp sgt i32 %19, 1
  br i1 %20, label %21, label %23, !prof !9

21:                                               ; preds = %18
  %22 = add nsw i32 %19, -1
  store i32 %22, ptr %2, align 4, !tbaa !4
  br label %lean_dec.exit10.i

23:                                               ; preds = %18
  %.not.i.i = icmp eq i32 %19, 0
  br i1 %.not.i.i, label %lean_dec.exit10.i, label %24

24:                                               ; preds = %23
  tail call void @lean_dec_ref_cold(ptr noundef nonnull %2) #5
  br label %lean_dec.exit10.i

lean_dec.exit10.i:                                ; preds = %24, %23, %21, %15
  %25 = ptrtoint ptr %1 to i64
  %26 = and i64 %25, 1
  %.not15.i = icmp eq i64 %26, 0
  br i1 %.not15.i, label %27, label %lean_dec.exit

27:                                               ; preds = %lean_dec.exit10.i
  %.val.i.i = load i32, ptr %1, align 4, !tbaa !4
  %28 = icmp sgt i32 %.val.i.i, 0
  br i1 %28, label %29, label %31, !prof !9

29:                                               ; preds = %27
  %30 = add nuw i32 %.val.i.i, 1
  store i32 %30, ptr %1, align 4, !tbaa !4
  br label %l___private_Lake_Util_Name_0__Lean_Name_cmp_match__1_splitter___rarg.exit.thread

31:                                               ; preds = %27
  %.not.i14.i = icmp eq i32 %.val.i.i, 0
  br i1 %.not.i14.i, label %lean_dec.exit, label %32

32:                                               ; preds = %31
  tail call void @lean_inc_ref_cold(ptr noundef nonnull %1) #5
  br label %l___private_Lake_Util_Name_0__Lean_Name_cmp_match__1_splitter___rarg.exit.threadthread-pre-split

l___private_Lake_Util_Name_0__Lean_Name_cmp_match__1_splitter___rarg.exit: ; preds = %lean_dec.exit6
  %33 = or disjoint i64 %13, 1
  %34 = inttoptr i64 %33 to ptr
  %35 = tail call ptr @lean_apply_2(ptr noundef %2, ptr noundef nonnull %34, ptr noundef nonnull inttoptr (i64 1 to ptr)) #5
  %.pre = ptrtoint ptr %1 to i64
  %.pre11 = and i64 %.pre, 1
  %36 = icmp eq i64 %.pre11, 0
  br i1 %36, label %l___private_Lake_Util_Name_0__Lean_Name_cmp_match__1_splitter___rarg.exit.threadthread-pre-split, label %lean_dec.exit

l___private_Lake_Util_Name_0__Lean_Name_cmp_match__1_splitter___rarg.exit.threadthread-pre-split: ; preds = %l___private_Lake_Util_Name_0__Lean_Name_cmp_match__1_splitter___rarg.exit, %32
  %.0.i16.ph = phi ptr [ %1, %32 ], [ %35, %l___private_Lake_Util_Name_0__Lean_Name_cmp_match__1_splitter___rarg.exit ]
  %.pr = load i32, ptr %1, align 4, !tbaa !4
  br label %l___private_Lake_Util_Name_0__Lean_Name_cmp_match__1_splitter___rarg.exit.thread

l___private_Lake_Util_Name_0__Lean_Name_cmp_match__1_splitter___rarg.exit.thread: ; preds = %l___private_Lake_Util_Name_0__Lean_Name_cmp_match__1_splitter___rarg.exit.threadthread-pre-split, %29
  %37 = phi i32 [ %.pr, %l___private_Lake_Util_Name_0__Lean_Name_cmp_match__1_splitter___rarg.exit.threadthread-pre-split ], [ %30, %29 ]
  %.0.i16 = phi ptr [ %.0.i16.ph, %l___private_Lake_Util_Name_0__Lean_Name_cmp_match__1_splitter___rarg.exit.threadthread-pre-split ], [ %1, %29 ]
  %38 = icmp sgt i32 %37, 1
  br i1 %38, label %39, label %41, !prof !15

39:                                               ; preds = %l___private_Lake_Util_Name_0__Lean_Name_cmp_match__1_splitter___rarg.exit.thread
  %40 = add nsw i32 %37, -1
  store i32 %40, ptr %1, align 4, !tbaa !4
  br label %lean_dec.exit

41:                                               ; preds = %l___private_Lake_Util_Name_0__Lean_Name_cmp_match__1_splitter___rarg.exit.thread
  %.not.i7 = icmp eq i32 %37, 0
  br i1 %.not.i7, label %lean_dec.exit, label %42

42:                                               ; preds = %41
  tail call void @lean_dec_ref_cold(ptr noundef nonnull %1) #5
  br label %lean_dec.exit

lean_dec.exit:                                    ; preds = %31, %lean_dec.exit10.i, %42, %41, %39, %l___private_Lake_Util_Name_0__Lean_Name_cmp_match__1_splitter___rarg.exit
  %.0.i15 = phi ptr [ %.0.i16, %42 ], [ %.0.i16, %41 ], [ %.0.i16, %39 ], [ %35, %l___private_Lake_Util_Name_0__Lean_Name_cmp_match__1_splitter___rarg.exit ], [ %1, %lean_dec.exit10.i ], [ %1, %31 ]
  ret ptr %.0.i15
}